target datalayout = "e-m:e-p270:32:32-p271:32:32-p272:64:64-i64:64-i128:128-f80:128-n8:16:32:64-S128"
target triple = "x86_64-unknown-linux-gnu"

%"class.icu_75::UnicodeSet" = type <{ %"class.icu_75::UnicodeFilter", ptr, i32, i32, i8, [7 x i8], ptr, ptr, i32, [4 x i8], ptr, i32, [4 x i8], ptr, ptr, [25 x i32], [4 x i8] }>
%"class.icu_75::UnicodeFilter" = type { %"class.icu_75::UnicodeFunctor", %"class.icu_75::UnicodeMatcher" }
%"class.icu_75::UnicodeFunctor" = type { %"class.icu_75::UObject" }
%"class.icu_75::UObject" = type { ptr }
%"class.icu_75::UnicodeMatcher" = type { ptr }

@_ZTVN6icu_7513UnicodeFilterE = external unnamed_addr constant { [11 x ptr], [8 x ptr] }, align 8
@_ZTVN6icu_7514UnicodeFunctorE = external unnamed_addr constant { [9 x ptr] }, align 8
@_ZTVN6icu_757UObjectE = external unnamed_addr constant { [5 x ptr] }, align 8
@_ZTVN6icu_7514UnicodeMatcherE = external unnamed_addr constant { [8 x ptr] }, align 8

; Function Attrs: mustprogress nounwind uwtable
define linkonce_odr void @_ZN6icu_757UObjectC2ERKS0_(ptr noundef nonnull align 8 dereferenceable(8) %this, ptr noundef nonnull align 8 dereferenceable(8) %0) unnamed_addr #0 comdat align 2 {
entry:
  %this.addr = alloca ptr, align 8
  %.addr = alloca ptr, align 8
  store ptr %this, ptr %this.addr, align 8
  store ptr %0, ptr %.addr, align 8
  %this1 = load ptr, ptr %this.addr, align 8
  store ptr getelementptr inbounds ({ [5 x ptr] }, ptr @_ZTVN6icu_757UObjectE, i32 0, i32 0, i32 2), ptr %this1, align 8
  ret void
}

; Function Attrs: mustprogress nounwind uwtable
define linkonce_odr void @_ZN6icu_7514UnicodeMatcherC2ERKS0_(ptr noundef nonnull align 8 dereferenceable(8) %this, ptr noundef nonnull align 8 dereferenceable(8) %0) unnamed_addr #0 comdat align 2 {
entry:
  %this.addr = alloca ptr, align 8
  %.addr = alloca ptr, align 8
  store ptr %this, ptr %this.addr, align 8
  store ptr %0, ptr %.addr, align 8
  %this1 = load ptr, ptr %this.addr, align 8
  store ptr getelementptr inbounds ({ [8 x ptr] }, ptr @_ZTVN6icu_7514UnicodeMatcherE, i32 0, i32 0, i32 2), ptr %this1, align 8
  ret void
}

; Function Attrs: mustprogress nounwind uwtable
define linkonce_odr void @_ZN6icu_7514UnicodeFunctorC2ERKS0_(ptr noundef nonnull align 8 dereferenceable(8) %this, ptr noundef nonnull align 8 dereferenceable(8) %0) unnamed_addr #0 comdat align 2 {
entry:
  %this.addr = alloca ptr, align 8
  %.addr = alloca ptr, align 8
  store ptr %this, ptr %this.addr, align 8
  store ptr %0, ptr %.addr, align 8
  %this1 = load ptr, ptr %this.addr, align 8
  %1 = load ptr, ptr %.addr, align 8
  call void @_ZN6icu_757UObjectC2ERKS0_(ptr noundef nonnull align 8 dereferenceable(8) %this1, ptr noundef nonnull align 8 dereferenceable(8) %1) #12
  store ptr getelementptr inbounds ({ [9 x ptr] }, ptr @_ZTVN6icu_7514UnicodeFunctorE, i32 0, i32 0, i32 2), ptr %this1, align 8
  ret void
}

; Function Attrs: mustprogress uwtable
define noundef nonnull align 8 dereferenceable(200) ptr @_ZN6icu_7510UnicodeSetaSERKS0_(ptr noundef nonnull align 8 dereferenceable(200) %this, ptr noundef nonnull align 8 dereferenceable(200) %o) #1 align 2 {
entry:
  %this.addr = alloca ptr, align 8
  %o.addr = alloca ptr, align 8
  store ptr %this, ptr %this.addr, align 8
  store ptr %o, ptr %o.addr, align 8
  %this1 = load ptr, ptr %this.addr, align 8
  %0 = load ptr, ptr %o.addr, align 8
  %call = call noundef nonnull align 8 dereferenceable(200) ptr @_ZN6icu_7510UnicodeSet8copyFromERKS0_a(ptr noundef nonnull align 8 dereferenceable(200) %this1, ptr noundef nonnull align 8 dereferenceable(200) %0, i8 noundef signext 0)
  ret ptr %call
}

; Function Attrs: mustprogress nounwind uwtable
define linkonce_odr void @_ZN6icu_7513UnicodeFilterC2ERKS0_(ptr noundef nonnull align 8 dereferenceable(16) %this, ptr noundef nonnull align 8 dereferenceable(16) %0) unnamed_addr #0 comdat align 2 {
entry:
  %this.addr = alloca ptr, align 8
  %.addr = alloca ptr, align 8
  store ptr %this, ptr %this.addr, align 8
  store ptr %0, ptr %.addr, align 8
  %this1 = load ptr, ptr %this.addr, align 8
  %1 = load ptr, ptr %.addr, align 8
  call void @_ZN6icu_7514UnicodeFunctorC2ERKS0_(ptr noundef nonnull align 8 dereferenceable(8) %this1, ptr noundef nonnull align 8 dereferenceable(8) %1) #12
  %2 = getelementptr inbounds i8, ptr %this1, i64 8
  %3 = load ptr, ptr %.addr, align 8
  %add.ptr = getelementptr inbounds i8, ptr %3, i64 8
  call void @_ZN6icu_7514UnicodeMatcherC2ERKS0_(ptr noundef nonnull align 8 dereferenceable(8) %2, ptr noundef nonnull align 8 dereferenceable(8) %add.ptr) #12
  store ptr getelementptr inbounds ({ [11 x ptr], [8 x ptr] }, ptr @_ZTVN6icu_7513UnicodeFilterE, i32 0, i32 0, i32 2), ptr %this1, align 8
  %add.ptr2 = getelementptr inbounds i8, ptr %this1, i64 8
  store ptr getelementptr inbounds ({ [11 x ptr], [8 x ptr] }, ptr @_ZTVN6icu_7513UnicodeFilterE, i32 0, i32 1, i32 2), ptr %add.ptr2, align 8
  ret void
}

; Function Attrs: mustprogress uwtable
define void @_ZN6icu_7510UnicodeSetC2ERKS0_(ptr noundef nonnull align 8 dereferenceable(200) %this, ptr noundef nonnull align 8 dereferenceable(200) %o) unnamed_addr #1 align 2 personality ptr @__gxx_personality_v0 {
entry:
  %this.addr = alloca ptr, align 8
  %o.addr = alloca ptr, align 8
  %exn.slot = alloca ptr, align 8
  %ehselector.slot = alloca i32, align 4
  store ptr %this, ptr %this.addr, align 8
  store ptr %o, ptr %o.addr, align 8
  %this1 = load ptr, ptr %this.addr, align 8
  %0 = load ptr, ptr %o.addr, align 8
  call void @_ZN6icu_7513UnicodeFilterC2ERKS0_(ptr noundef nonnull align 8 dereferenceable(16) %this1, ptr noundef nonnull align 8 dereferenceable(16) %0) #12
  store ptr getelementptr inbounds ({ [35 x ptr], [8 x ptr] }, ptr @_ZTVN6icu_7510UnicodeSetE, i32 0, i32 0, i32 2), ptr %this1, align 8
  %add.ptr = getelementptr inbounds i8, ptr %this1, i64 8
  store ptr getelementptr inbounds ({ [35 x ptr], [8 x ptr] }, ptr @_ZTVN6icu_7510UnicodeSetE, i32 0, i32 1, i32 2), ptr %add.ptr, align 8
  %list = getelementptr inbounds %"class.icu_75::UnicodeSet", ptr %this1, i32 0, i32 1
  %stackList = getelementptr inbounds %"class.icu_75::UnicodeSet", ptr %this1, i32 0, i32 15
  %arraydecay = getelementptr inbounds [25 x i32], ptr %stackList, i64 0, i64 0
  store ptr %arraydecay, ptr %list, align 8
  %capacity = getelementptr inbounds %"class.icu_75::UnicodeSet", ptr %this1, i32 0, i32 2
  store i32 25, ptr %capacity, align 8
  %len = getelementptr inbounds %"class.icu_75::UnicodeSet", ptr %this1, i32 0, i32 3
  store i32 1, ptr %len, align 4
  %fFlags = getelementptr inbounds %"class.icu_75::UnicodeSet", ptr %this1, i32 0, i32 4
  store i8 0, ptr %fFlags, align 8
  %bmpSet = getelementptr inbounds %"class.icu_75::UnicodeSet", ptr %this1, i32 0, i32 6
  store ptr null, ptr %bmpSet, align 8
  %buffer = getelementptr inbounds %"class.icu_75::UnicodeSet", ptr %this1, i32 0, i32 7
  store ptr null, ptr %buffer, align 8
  %bufferCapacity = getelementptr inbounds %"class.icu_75::UnicodeSet", ptr %this1, i32 0, i32 8
  store i32 0, ptr %bufferCapacity, align 8
  %pat = getelementptr inbounds %"class.icu_75::UnicodeSet", ptr %this1, i32 0, i32 10
  store ptr null, ptr %pat, align 8
  %patLen = getelementptr inbounds %"class.icu_75::UnicodeSet", ptr %this1, i32 0, i32 11
  store i32 0, ptr %patLen, align 8
  %strings = getelementptr inbounds %"class.icu_75::UnicodeSet", ptr %this1, i32 0, i32 13
  store ptr null, ptr %strings, align 8
  %stringSpan = getelementptr inbounds %"class.icu_75::UnicodeSet", ptr %this1, i32 0, i32 14
  store ptr null, ptr %stringSpan, align 8
  %1 = load ptr, ptr %o.addr, align 8
  %call = invoke noundef nonnull align 8 dereferenceable(200) ptr @_ZN6icu_7510UnicodeSetaSERKS0_(ptr noundef nonnull align 8 dereferenceable(200) %this1, ptr noundef nonnull align 8 dereferenceable(200) %1)
          to label %invoke.cont unwind label %lpad

invoke.cont:                                      ; preds = %entry
  ret void

lpad:                                             ; preds = %entry
  %2 = landingpad { ptr, i32 }
          cleanup
  %3 = extractvalue { ptr, i32 } %2, 0
  store ptr %3, ptr %exn.slot, align 8
  %4 = extractvalue { ptr, i32 } %2, 1
  store i32 %4, ptr %ehselector.slot, align 4
  call void @_ZN6icu_7513UnicodeFilterD2Ev(ptr noundef nonnull align 8 dereferenceable(16) %this1) #12
  br label %eh.resume

eh.resume:                                        ; preds = %lpad
  %exn = load ptr, ptr %exn.slot, align 8
  %sel = load i32, ptr %ehselector.slot, align 4
  %lpad.val = insertvalue { ptr, i32 } poison, ptr %exn, 0
  %lpad.val2 = insertvalue { ptr, i32 } %lpad.val, i32 %sel, 1
  resume { ptr, i32 } %lpad.val2
}